target datalayout = "e-m:e-p270:32:32-p271:32:32-p272:64:64-i64:64-i128:128-f80:128-n8:16:32:64-S128"
target triple = "x86_64-pc-linux-gnu"

%struct.ARKodeRelaxMemRec = type { ptr, ptr, ptr, ptr, i32, i64, i64, i64, double, double, double, double, double, double, double, double, double, i32, double, double, double, i32, i64, i64, i64 }
%struct.ARKodeMemRec = type { ptr, double, ptr, i32, i32, double, double, ptr, i32, double, ptr, i32, i32, ptr, ptr, i32, ptr, ptr, i32, ptr, ptr, ptr, ptr, ptr, ptr, ptr, ptr, ptr, ptr, ptr, ptr, ptr, ptr, ptr, i32, ptr, ptr, ptr, i32, ptr, ptr, ptr, ptr, ptr, ptr, i32, i32, i32, double, double, double, double, double, double, double, double, double, double, i32, ptr, i64, i32, i32, i32, i32, i64, i64, i32, i64, i64, i64, i64, i64, i64, i64, double, double, double, double, double, i32, i32, i32, i32, i32, i32, i32, i32, ptr, i32, ptr, ptr, ptr, ptr, i32, i32, i32 }

@.str = private unnamed_addr constant [126 x i8] c"generated/home/dtcxzyw/WorkSpace/Projects/compilers/llvm-opt-benchmark/bench/sundials/sundials/src/arkode/arkode_relaxation.c\00", align 1
@__func__.arkRelax = private unnamed_addr constant [9 x i8] c"arkRelax\00", align 1
@.str.19 = private unnamed_addr constant [27 x i8] c"Relaxation memory is NULL.\00", align 1

; Function Attrs: nounwind uwtable
define i32 @arkRelax(ptr noundef %0, ptr noundef %1, ptr noundef %2, ptr noundef %3) #0 {
  %5 = alloca i32, align 4
  %6 = alloca ptr, align 8
  %7 = alloca ptr, align 8
  %8 = alloca ptr, align 8
  %9 = alloca ptr, align 8
  %10 = alloca i32, align 4
  %11 = alloca double, align 8
  %12 = alloca ptr, align 8
  store ptr %0, ptr %6, align 8
  store ptr %1, ptr %7, align 8
  store ptr %2, ptr %8, align 8
  store ptr %3, ptr %9, align 8
  %13 = load ptr, ptr %6, align 8
  %14 = getelementptr inbounds %struct.ARKodeMemRec, ptr %13, i32 0, i32 90
  %15 = load ptr, ptr %14, align 8
  store ptr %15, ptr %12, align 8
  %16 = load ptr, ptr %12, align 8
  %17 = icmp ne ptr %16, null
  br i1 %17, label %20, label %18

18:                                               ; preds = %4
  %19 = load ptr, ptr %6, align 8
  call void (ptr, i32, i32, ptr, ptr, ptr, ...) @arkProcessError(ptr noundef %19, i32 noundef -44, i32 noundef 787, ptr noundef @__func__.arkRelax, ptr noundef @.str, ptr noundef @.str.19)
  store i32 -44, ptr %5, align 4
  br label %97

20:                                               ; preds = %4
  %21 = load ptr, ptr %6, align 8
  %22 = load ptr, ptr %12, align 8
  %23 = call i32 @arkRelaxSolve(ptr noundef %21, ptr noundef %22, ptr noundef %11)
  store i32 %23, ptr %10, align 4
  %24 = load i32, ptr %10, align 4
  %25 = icmp slt i32 %24, 0
  br i1 %25, label %26, label %28

26:                                               ; preds = %20
  %27 = load i32, ptr %10, align 4
  store i32 %27, ptr %5, align 4
  br label %97

28:                                               ; preds = %20
  %29 = load i32, ptr %10, align 4
  %30 = icmp sgt i32 %29, 0
  br i1 %30, label %31, label %69

31:                                               ; preds = %28
  %32 = load ptr, ptr %12, align 8
  %33 = getelementptr inbounds %struct.ARKodeRelaxMemRec, ptr %32, i32 0, i32 7
  %34 = load i64, ptr %33, align 8
  %35 = add nsw i64 %34, 1
  store i64 %35, ptr %33, align 8
  %36 = load ptr, ptr %7, align 8
  %37 = load i32, ptr %36, align 4
  %38 = add nsw i32 %37, 1
  store i32 %38, ptr %36, align 4
  %39 = load ptr, ptr %7, align 8
  %40 = load i32, ptr %39, align 4
  %41 = load ptr, ptr %12, align 8
  %42 = getelementptr inbounds %struct.ARKodeRelaxMemRec, ptr %41, i32 0, i32 4
  %43 = load i32, ptr %42, align 8
  %44 = icmp eq i32 %40, %43
  br i1 %44, label %45, label %46

45:                                               ; preds = %31
  store i32 -43, ptr %5, align 4
  br label %97

46:                                               ; preds = %31
  %47 = load ptr, ptr %6, align 8
  %48 = getelementptr inbounds %struct.ARKodeMemRec, ptr %47, i32 0, i32 50
  %49 = load double, ptr %48, align 8
  %50 = call double @llvm.fabs.f64(double %49)
  %51 = load ptr, ptr %6, align 8
  %52 = getelementptr inbounds %struct.ARKodeMemRec, ptr %51, i32 0, i32 51
  %53 = load double, ptr %52, align 8
  %54 = fmul double %53, 0x3FF000010C6F7A0B
  %55 = fcmp ole double %50, %54
  br i1 %55, label %56, label %57

56:                                               ; preds = %46
  store i32 -43, ptr %5, align 4
  br label %97

57:                                               ; preds = %46
  %58 = load ptr, ptr %6, align 8
  %59 = getelementptr inbounds %struct.ARKodeMemRec, ptr %58, i32 0, i32 58
  %60 = load i32, ptr %59, align 8
  %61 = icmp ne i32 %60, 0
  br i1 %61, label %62, label %63

62:                                               ; preds = %57
  store i32 -43, ptr %5, align 4
  br label %97

63:                                               ; preds = %57
  %64 = load ptr, ptr %12, align 8
  %65 = getelementptr inbounds %struct.ARKodeRelaxMemRec, ptr %64, i32 0, i32 16
  %66 = load double, ptr %65, align 8
  %67 = load ptr, ptr %6, align 8
  %68 = getelementptr inbounds %struct.ARKodeMemRec, ptr %67, i32 0, i32 55
  store double %66, ptr %68, align 8
  store i32 5, ptr %5, align 4
  br label %97

69:                                               ; preds = %28
  %70 = load double, ptr %11, align 8
  %71 = load ptr, ptr %6, align 8
  %72 = getelementptr inbounds %struct.ARKodeMemRec, ptr %71, i32 0, i32 50
  %73 = load double, ptr %72, align 8
  %74 = fmul double %73, %70
  store double %74, ptr %72, align 8
  %75 = load double, ptr %11, align 8
  %76 = load ptr, ptr %12, align 8
  %77 = getelementptr inbounds %struct.ARKodeRelaxMemRec, ptr %76, i32 0, i32 3
  %78 = load ptr, ptr %77, align 8
  %79 = load ptr, ptr %6, align 8
  %80 = call i32 %78(ptr noundef %79)
  %81 = call double @SUNRpowerI(double noundef %75, i32 noundef %80)
  %82 = load ptr, ptr %8, align 8
  %83 = load double, ptr %82, align 8
  %84 = fmul double %83, %81
  store double %84, ptr %82, align 8
  %85 = load double, ptr %11, align 8
  %86 = load ptr, ptr %6, align 8
  %87 = getelementptr inbounds %struct.ARKodeMemRec, ptr %86, i32 0, i32 35
  %88 = load ptr, ptr %87, align 8
  %89 = load double, ptr %11, align 8
  %90 = fsub double 1.000000e+00, %89
  %91 = load ptr, ptr %6, align 8
  %92 = getelementptr inbounds %struct.ARKodeMemRec, ptr %91, i32 0, i32 36
  %93 = load ptr, ptr %92, align 8
  %94 = load ptr, ptr %6, align 8
  %95 = getelementptr inbounds %struct.ARKodeMemRec, ptr %94, i32 0, i32 35
  %96 = load ptr, ptr %95, align 8
  call void @N_VLinearSum(double noundef %85, ptr noundef %88, double noundef %90, ptr noundef %93, ptr noundef %96)
  store i32 0, ptr %5, align 4
  br label %97

97:                                               ; preds = %69, %63, %62, %56, %45, %26, %18
  %98 = load i32, ptr %5, align 4
  ret i32 %98
}