; Function Attrs: nounwind uwtable
define range(i32 -2147483648, 6) i32 @arkRelax(ptr noundef %0, ptr noundef captures(none) %1, ptr noundef captures(none) %2, ptr noundef readnone captures(none) %3) local_unnamed_addr #0 {
  %5 = alloca double, align 8
  %6 = getelementptr inbounds nuw i8, ptr %0, i64 648
  %7 = load ptr, ptr %6, align 8
  %.not = icmp eq ptr %7, null
  br i1 %.not, label %8, label %9

8:                                                ; preds = %4
  tail call void (ptr, i32, i32, ptr, ptr, ptr, ...) @arkProcessError(ptr noundef nonnull %0, i32 noundef -44, i32 noundef 787, ptr noundef nonnull @__func__.arkRelax, ptr noundef nonnull @.str, ptr noundef nonnull @.str.19) #8
  br label %53

9:                                                ; preds = %4
  %10 = call i32 @arkRelaxSolve(ptr noundef nonnull %0, ptr noundef nonnull %7, ptr noundef nonnull %5)
  %11 = icmp slt i32 %10, 0
  br i1 %11, label %53, label %12

12:                                               ; preds = %9
  %.not26 = icmp eq i32 %10, 0
  br i1 %.not26, label %37, label %13

13:                                               ; preds = %12
  %14 = getelementptr inbounds nuw i8, ptr %7, i64 56
  %15 = load i64, ptr %14, align 8
  %16 = add nsw i64 %15, 1
  store i64 %16, ptr %14, align 8
  %17 = load i32, ptr %1, align 4
  %18 = add nsw i32 %17, 1
  store i32 %18, ptr %1, align 4
  %19 = getelementptr inbounds nuw i8, ptr %7, i64 32
  %20 = load i32, ptr %19, align 8
  %21 = icmp eq i32 %18, %20
  br i1 %21, label %53, label %22

22:                                               ; preds = %13
  %23 = getelementptr inbounds nuw i8, ptr %0, i64 376
  %24 = load double, ptr %23, align 8
  %25 = tail call double @llvm.fabs.f64(double %24)
  %26 = getelementptr inbounds nuw i8, ptr %0, i64 384
  %27 = load double, ptr %26, align 8
  %28 = fmul double %27, 0x3FF000010C6F7A0B
  %29 = fcmp ugt double %25, %28
  br i1 %29, label %30, label %53

30:                                               ; preds = %22
  %31 = getelementptr inbounds nuw i8, ptr %0, i64 440
  %32 = load i32, ptr %31, align 8
  %.not27 = icmp eq i32 %32, 0
  br i1 %.not27, label %33, label %53

33:                                               ; preds = %30
  %34 = getelementptr inbounds nuw i8, ptr %7, i64 128
  %35 = load double, ptr %34, align 8
  %36 = getelementptr inbounds nuw i8, ptr %0, i64 416
  store double %35, ptr %36, align 8
  br label %53

37:                                               ; preds = %12
  %38 = load double, ptr %5, align 8
  %39 = getelementptr inbounds nuw i8, ptr %0, i64 376
  %40 = load double, ptr %39, align 8
  %41 = fmul double %38, %40
  store double %41, ptr %39, align 8
  %42 = getelementptr inbounds nuw i8, ptr %7, i64 24
  %43 = load ptr, ptr %42, align 8
  %44 = tail call i32 %43(ptr noundef nonnull %0) #8
  %45 = tail call double @SUNRpowerI(double noundef %38, i32 noundef %44) #8
  %46 = load double, ptr %2, align 8
  %47 = fmul double %45, %46
  store double %47, ptr %2, align 8
  %48 = getelementptr inbounds nuw i8, ptr %0, i64 264
  %49 = load ptr, ptr %48, align 8
  %50 = fsub double 1.000000e+00, %38
  %51 = getelementptr inbounds nuw i8, ptr %0, i64 272
  %52 = load ptr, ptr %51, align 8
  tail call void @N_VLinearSum(double noundef %38, ptr noundef %49, double noundef %50, ptr noundef %52, ptr noundef %49) #8
  br label %53

53:                                               ; preds = %30, %22, %13, %9, %37, %33, %8
  %.0 = phi i32 [ 5, %33 ], [ 0, %37 ], [ -44, %8 ], [ %10, %9 ], [ -43, %13 ], [ -43, %22 ], [ -43, %30 ]
  ret i32 %.0
}